target datalayout = "e-m:e-p270:32:32-p271:32:32-p272:64:64-i64:64-i128:128-f80:128-n8:16:32:64-S128"
target triple = "x86_64-pc-linux-gnu"

%struct.redisObject = type { i32, i32, ptr }
%struct.getKeysResult = type { i32, i32, [6 x %struct.keyReference], ptr }
%struct.keyReference = type { i32, i32 }

@.str.2 = private unnamed_addr constant [5 x i8] c"db.c\00", align 1
@.str.16 = private unnamed_addr constant [4 x i8] c"set\00", align 1
@.str.53 = private unnamed_addr constant [17 x i8] c"!result->numkeys\00", align 1
@.str.59 = private unnamed_addr constant [4 x i8] c"get\00", align 1
@.str.71 = private unnamed_addr constant [7 x i8] c"incrby\00", align 1
@.str.72 = private unnamed_addr constant [9 x i8] c"overflow\00", align 1

; Function Attrs: nounwind uwtable
define dso_local ptr @getKeysPrepareResult(ptr noundef %0, i32 noundef %1) #0 {
  %3 = alloca ptr, align 8
  %4 = alloca i32, align 4
  store ptr %0, ptr %3, align 8, !tbaa !22
  store i32 %1, ptr %4, align 4, !tbaa !14
  %5 = load ptr, ptr %3, align 8, !tbaa !22
  %6 = getelementptr inbounds nuw %struct.getKeysResult, ptr %5, i32 0, i32 3
  %7 = load ptr, ptr %6, align 8, !tbaa !209
  %8 = icmp ne ptr %7, null
  br i1 %8, label %30, label %9

9:                                                ; preds = %2
  %10 = load ptr, ptr %3, align 8, !tbaa !22
  %11 = getelementptr inbounds nuw %struct.getKeysResult, ptr %10, i32 0, i32 0
  %12 = load i32, ptr %11, align 8, !tbaa !211
  %13 = icmp ne i32 %12, 0
  %14 = xor i1 %13, true
  %15 = xor i1 %14, true
  %16 = xor i1 %15, true
  %17 = zext i1 %16 to i32
  %18 = sext i32 %17 to i64
  %19 = call i64 @llvm.expect.i64(i64 %18, i64 1)
  %20 = icmp ne i64 %19, 0
  br i1 %20, label %21, label %22

21:                                               ; preds = %9
  br label %24

22:                                               ; preds = %9
  call void @_serverAssert(ptr noundef @.str.53, ptr noundef @.str.2, i32 noundef 2326)
  call void @abort() #16
  unreachable

23:                                               ; No predecessors!
  br label %24

24:                                               ; preds = %23, %21
  %25 = load ptr, ptr %3, align 8, !tbaa !22
  %26 = getelementptr inbounds nuw %struct.getKeysResult, ptr %25, i32 0, i32 2
  %27 = getelementptr inbounds [6 x %struct.keyReference], ptr %26, i64 0, i64 0
  %28 = load ptr, ptr %3, align 8, !tbaa !22
  %29 = getelementptr inbounds nuw %struct.getKeysResult, ptr %28, i32 0, i32 3
  store ptr %27, ptr %29, align 8, !tbaa !209
  br label %30

30:                                               ; preds = %24, %2
  %31 = load i32, ptr %4, align 4, !tbaa !14
  %32 = load ptr, ptr %3, align 8, !tbaa !22
  %33 = getelementptr inbounds nuw %struct.getKeysResult, ptr %32, i32 0, i32 1
  %34 = load i32, ptr %33, align 4, !tbaa !212
  %35 = icmp sgt i32 %31, %34
  br i1 %35, label %36, label %82

36:                                               ; preds = %30
  %37 = load ptr, ptr %3, align 8, !tbaa !22
  %38 = getelementptr inbounds nuw %struct.getKeysResult, ptr %37, i32 0, i32 3
  %39 = load ptr, ptr %38, align 8, !tbaa !209
  %40 = load ptr, ptr %3, align 8, !tbaa !22
  %41 = getelementptr inbounds nuw %struct.getKeysResult, ptr %40, i32 0, i32 2
  %42 = getelementptr inbounds [6 x %struct.keyReference], ptr %41, i64 0, i64 0
  %43 = icmp ne ptr %39, %42
  br i1 %43, label %44, label %54

44:                                               ; preds = %36
  %45 = load ptr, ptr %3, align 8, !tbaa !22
  %46 = getelementptr inbounds nuw %struct.getKeysResult, ptr %45, i32 0, i32 3
  %47 = load ptr, ptr %46, align 8, !tbaa !209
  %48 = load i32, ptr %4, align 4, !tbaa !14
  %49 = sext i32 %48 to i64
  %50 = mul i64 %49, 8
  %51 = call ptr @zrealloc(ptr noundef %47, i64 noundef %50) #20
  %52 = load ptr, ptr %3, align 8, !tbaa !22
  %53 = getelementptr inbounds nuw %struct.getKeysResult, ptr %52, i32 0, i32 3
  store ptr %51, ptr %53, align 8, !tbaa !209
  br label %78

54:                                               ; preds = %36
  %55 = load i32, ptr %4, align 4, !tbaa !14
  %56 = sext i32 %55 to i64
  %57 = mul i64 %56, 8
  %58 = call noalias ptr @zmalloc(i64 noundef %57) #18
  %59 = load ptr, ptr %3, align 8, !tbaa !22
  %60 = getelementptr inbounds nuw %struct.getKeysResult, ptr %59, i32 0, i32 3
  store ptr %58, ptr %60, align 8, !tbaa !209
  %61 = load ptr, ptr %3, align 8, !tbaa !22
  %62 = getelementptr inbounds nuw %struct.getKeysResult, ptr %61, i32 0, i32 0
  %63 = load i32, ptr %62, align 8, !tbaa !211
  %64 = icmp ne i32 %63, 0
  br i1 %64, label %65, label %77

65:                                               ; preds = %54
  %66 = load ptr, ptr %3, align 8, !tbaa !22
  %67 = getelementptr inbounds nuw %struct.getKeysResult, ptr %66, i32 0, i32 3
  %68 = load ptr, ptr %67, align 8, !tbaa !209
  %69 = load ptr, ptr %3, align 8, !tbaa !22
  %70 = getelementptr inbounds nuw %struct.getKeysResult, ptr %69, i32 0, i32 2
  %71 = getelementptr inbounds [6 x %struct.keyReference], ptr %70, i64 0, i64 0
  %72 = load ptr, ptr %3, align 8, !tbaa !22
  %73 = getelementptr inbounds nuw %struct.getKeysResult, ptr %72, i32 0, i32 0
  %74 = load i32, ptr %73, align 8, !tbaa !211
  %75 = sext i32 %74 to i64
  %76 = mul i64 %75, 8
  call void @llvm.memcpy.p0.p0.i64(ptr align 4 %68, ptr align 8 %71, i64 %76, i1 false)
  br label %77

77:                                               ; preds = %65, %54
  br label %78

78:                                               ; preds = %77, %44
  %79 = load i32, ptr %4, align 4, !tbaa !14
  %80 = load ptr, ptr %3, align 8, !tbaa !22
  %81 = getelementptr inbounds nuw %struct.getKeysResult, ptr %80, i32 0, i32 1
  store i32 %79, ptr %81, align 4, !tbaa !212
  br label %82

82:                                               ; preds = %78, %30
  %83 = load ptr, ptr %3, align 8, !tbaa !22
  %84 = getelementptr inbounds nuw %struct.getKeysResult, ptr %83, i32 0, i32 3
  %85 = load ptr, ptr %84, align 8, !tbaa !209
  ret ptr %85
}

; Function Attrs: nounwind uwtable
define dso_local i32 @bitfieldGetKeys(ptr noundef %0, ptr noundef %1, i32 noundef %2, ptr noundef %3) #0 {
  %5 = alloca ptr, align 8
  %6 = alloca ptr, align 8
  %7 = alloca i32, align 4
  %8 = alloca ptr, align 8
  %9 = alloca ptr, align 8
  %10 = alloca i32, align 4
  %11 = alloca i32, align 4
  %12 = alloca i32, align 4
  %13 = alloca i32, align 4
  %14 = alloca ptr, align 8
  store ptr %0, ptr %5, align 8, !tbaa !213
  store ptr %1, ptr %6, align 8, !tbaa !218
  store i32 %2, ptr %7, align 4, !tbaa !14
  store ptr %3, ptr %8, align 8, !tbaa !22
  call void @llvm.lifetime.start.p0(i64 8, ptr %9) #15
  call void @llvm.lifetime.start.p0(i64 4, ptr %10) #15
  store i32 1, ptr %10, align 4, !tbaa !14
  %15 = load ptr, ptr %8, align 8, !tbaa !22
  %16 = call ptr @getKeysPrepareResult(ptr noundef %15, i32 noundef 1)
  store ptr %16, ptr %9, align 8, !tbaa !22
  %17 = load ptr, ptr %9, align 8, !tbaa !22
  %18 = getelementptr inbounds %struct.keyReference, ptr %17, i64 0
  %19 = getelementptr inbounds nuw %struct.keyReference, ptr %18, i32 0, i32 0
  store i32 1, ptr %19, align 4, !tbaa !224
  %20 = load ptr, ptr %8, align 8, !tbaa !22
  %21 = getelementptr inbounds nuw %struct.getKeysResult, ptr %20, i32 0, i32 0
  store i32 1, ptr %21, align 8, !tbaa !211
  call void @llvm.lifetime.start.p0(i64 4, ptr %11) #15
  store i32 2, ptr %11, align 4, !tbaa !14
  br label %22

22:                                               ; preds = %79, %4
  %23 = load i32, ptr %11, align 4, !tbaa !14
  %24 = load i32, ptr %7, align 4, !tbaa !14
  %25 = icmp slt i32 %23, %24
  br i1 %25, label %27, label %26

26:                                               ; preds = %22
  store i32 2, ptr %12, align 4
  br label %82

27:                                               ; preds = %22
  call void @llvm.lifetime.start.p0(i64 4, ptr %13) #15
  %28 = load i32, ptr %7, align 4, !tbaa !14
  %29 = load i32, ptr %11, align 4, !tbaa !14
  %30 = sub nsw i32 %28, %29
  %31 = sub nsw i32 %30, 1
  store i32 %31, ptr %13, align 4, !tbaa !14
  call void @llvm.lifetime.start.p0(i64 8, ptr %14) #15
  %32 = load ptr, ptr %6, align 8, !tbaa !218
  %33 = load i32, ptr %11, align 4, !tbaa !14
  %34 = sext i32 %33 to i64
  %35 = getelementptr inbounds ptr, ptr %32, i64 %34
  %36 = load ptr, ptr %35, align 8, !tbaa !5
  %37 = getelementptr inbounds nuw %struct.redisObject, ptr %36, i32 0, i32 2
  %38 = load ptr, ptr %37, align 8, !tbaa !25
  store ptr %38, ptr %14, align 8, !tbaa !78
  %39 = load ptr, ptr %14, align 8, !tbaa !78
  %40 = call i32 @strcasecmp(ptr noundef %39, ptr noundef @.str.59) #19
  %41 = icmp ne i32 %40, 0
  br i1 %41, label %48, label %42

42:                                               ; preds = %27
  %43 = load i32, ptr %13, align 4, !tbaa !14
  %44 = icmp sge i32 %43, 2
  br i1 %44, label %45, label %48

45:                                               ; preds = %42
  %46 = load i32, ptr %11, align 4, !tbaa !14
  %47 = add nsw i32 %46, 2
  store i32 %47, ptr %11, align 4, !tbaa !14
  br label %75

48:                                               ; preds = %42, %27
  %49 = load ptr, ptr %14, align 8, !tbaa !78
  %50 = call i32 @strcasecmp(ptr noundef %49, ptr noundef @.str.16) #19
  %51 = icmp ne i32 %50, 0
  br i1 %51, label %52, label %56

52:                                               ; preds = %48
  %53 = load ptr, ptr %14, align 8, !tbaa !78
  %54 = call i32 @strcasecmp(ptr noundef %53, ptr noundef @.str.71) #19
  %55 = icmp ne i32 %54, 0
  br i1 %55, label %62, label %56

56:                                               ; preds = %52, %48
  %57 = load i32, ptr %13, align 4, !tbaa !14
  %58 = icmp sge i32 %57, 3
  br i1 %58, label %59, label %62

59:                                               ; preds = %56
  store i32 0, ptr %10, align 4, !tbaa !14
  %60 = load i32, ptr %11, align 4, !tbaa !14
  %61 = add nsw i32 %60, 3
  store i32 %61, ptr %11, align 4, !tbaa !14
  store i32 2, ptr %12, align 4
  br label %76

62:                                               ; preds = %56, %52
  %63 = load ptr, ptr %14, align 8, !tbaa !78
  %64 = call i32 @strcasecmp(ptr noundef %63, ptr noundef @.str.72) #19
  %65 = icmp ne i32 %64, 0
  br i1 %65, label %72, label %66

66:                                               ; preds = %62
  %67 = load i32, ptr %13, align 4, !tbaa !14
  %68 = icmp sge i32 %67, 1
  br i1 %68, label %69, label %72

69:                                               ; preds = %66
  %70 = load i32, ptr %11, align 4, !tbaa !14
  %71 = add nsw i32 %70, 1
  store i32 %71, ptr %11, align 4, !tbaa !14
  br label %73

72:                                               ; preds = %66, %62
  store i32 0, ptr %10, align 4, !tbaa !14
  store i32 2, ptr %12, align 4
  br label %76

73:                                               ; preds = %69
  br label %74

74:                                               ; preds = %73
  br label %75

75:                                               ; preds = %74, %45
  store i32 0, ptr %12, align 4
  br label %76

76:                                               ; preds = %75, %72, %59
  call void @llvm.lifetime.end.p0(i64 8, ptr %14) #15
  call void @llvm.lifetime.end.p0(i64 4, ptr %13) #15
  %77 = load i32, ptr %12, align 4
  switch i32 %77, label %82 [
    i32 0, label %78
  ]

78:                                               ; preds = %76
  br label %79

79:                                               ; preds = %78
  %80 = load i32, ptr %11, align 4, !tbaa !14
  %81 = add nsw i32 %80, 1
  store i32 %81, ptr %11, align 4, !tbaa !14
  br label %22, !llvm.loop !255

82:                                               ; preds = %76, %26
  call void @llvm.lifetime.end.p0(i64 4, ptr %11) #15
  br label %83

83:                                               ; preds = %82
  %84 = load i32, ptr %10, align 4, !tbaa !14
  %85 = icmp ne i32 %84, 0
  br i1 %85, label %86, label %90

86:                                               ; preds = %83
  %87 = load ptr, ptr %9, align 8, !tbaa !22
  %88 = getelementptr inbounds %struct.keyReference, ptr %87, i64 0
  %89 = getelementptr inbounds nuw %struct.keyReference, ptr %88, i32 0, i32 1
  store i32 17, ptr %89, align 4, !tbaa !226
  br label %94

90:                                               ; preds = %83
  %91 = load ptr, ptr %9, align 8, !tbaa !22
  %92 = getelementptr inbounds %struct.keyReference, ptr %91, i64 0
  %93 = getelementptr inbounds nuw %struct.keyReference, ptr %92, i32 0, i32 1
  store i32 50, ptr %93, align 4, !tbaa !226
  br label %94

94:                                               ; preds = %90, %86
  store i32 1, ptr %12, align 4
  call void @llvm.lifetime.end.p0(i64 4, ptr %10) #15
  call void @llvm.lifetime.end.p0(i64 8, ptr %9) #15
  ret i32 1
}