; Function Attrs: nounwind uwtable
define dso_local noundef i32 @bitfieldGetKeys(ptr noundef readnone captures(none) %0, ptr noundef readonly captures(none) %1, i32 noundef %2, ptr noundef %3) local_unnamed_addr #0 {
  %5 = getelementptr inbounds nuw i8, ptr %3, i64 56
  %6 = load ptr, ptr %5, align 8, !tbaa !175
  %.not.i = icmp eq ptr %6, null
  br i1 %.not.i, label %7, label %12

7:                                                ; preds = %4
  %8 = load i32, ptr %3, align 8, !tbaa !177
  %.not22.i = icmp eq i32 %8, 0
  br i1 %.not22.i, label %10, label %9, !prof !73

9:                                                ; preds = %7
  tail call void @_serverAssert(ptr noundef nonnull @.str.53, ptr noundef nonnull @.str.2, i32 noundef 2326) #20
  tail call void @abort() #21
  unreachable

10:                                               ; preds = %7
  %11 = getelementptr inbounds nuw i8, ptr %3, i64 8
  store ptr %11, ptr %5, align 8, !tbaa !175
  br label %12

12:                                               ; preds = %10, %4
  %13 = phi ptr [ %11, %10 ], [ %6, %4 ]
  %14 = getelementptr inbounds nuw i8, ptr %3, i64 4
  %15 = load i32, ptr %14, align 4, !tbaa !178
  %16 = icmp slt i32 %15, 1
  br i1 %16, label %17, label %getKeysPrepareResult.exit

17:                                               ; preds = %12
  %18 = getelementptr inbounds nuw i8, ptr %3, i64 8
  %.not23.i = icmp eq ptr %13, %18
  br i1 %.not23.i, label %21, label %19

19:                                               ; preds = %17
  %20 = tail call dereferenceable_or_null(8) ptr @zrealloc(ptr noundef nonnull %13, i64 noundef 8) #25
  store ptr %20, ptr %5, align 8, !tbaa !175
  br label %27

21:                                               ; preds = %17
  %22 = tail call noalias dereferenceable_or_null(8) ptr @zmalloc(i64 noundef 8) #23
  store ptr %22, ptr %5, align 8, !tbaa !175
  %23 = load i32, ptr %3, align 8, !tbaa !177
  %.not24.i = icmp eq i32 %23, 0
  br i1 %.not24.i, label %27, label %24

24:                                               ; preds = %21
  %25 = sext i32 %23 to i64
  %26 = shl nsw i64 %25, 3
  tail call void @llvm.memcpy.p0.p0.i64(ptr align 4 %22, ptr nonnull align 8 %18, i64 %26, i1 false)
  br label %27

27:                                               ; preds = %24, %21, %19
  %28 = phi ptr [ %22, %21 ], [ %22, %24 ], [ %20, %19 ]
  store i32 1, ptr %14, align 4, !tbaa !178
  br label %getKeysPrepareResult.exit

getKeysPrepareResult.exit:                        ; preds = %12, %27
  %29 = phi ptr [ %28, %27 ], [ %13, %12 ]
  store i32 1, ptr %29, align 4, !tbaa !188
  store i32 1, ptr %3, align 8, !tbaa !177
  %30 = icmp sgt i32 %2, 2
  br i1 %30, label %.lr.ph, label %._crit_edge

.lr.ph:                                           ; preds = %getKeysPrepareResult.exit, %52
  %.03045 = phi i32 [ %54, %52 ], [ 2, %getKeysPrepareResult.exit ]
  %31 = xor i32 %.03045, -1
  %32 = add i32 %2, %31
  %33 = sext i32 %.03045 to i64
  %34 = getelementptr inbounds ptr, ptr %1, i64 %33
  %35 = load ptr, ptr %34, align 8, !tbaa !105
  %36 = getelementptr inbounds nuw i8, ptr %35, i64 8
  %37 = load ptr, ptr %36, align 8, !tbaa !18
  %38 = tail call i32 @strcasecmp(ptr noundef %37, ptr noundef nonnull @.str.59) #24
  %39 = icmp eq i32 %38, 0
  %40 = icmp sgt i32 %32, 1
  %or.cond = and i1 %40, %39
  br i1 %or.cond, label %52, label %41

41:                                               ; preds = %.lr.ph
  %42 = tail call i32 @strcasecmp(ptr noundef %37, ptr noundef nonnull @.str.16) #24
  %.not = icmp eq i32 %42, 0
  br i1 %.not, label %47, label %43

43:                                               ; preds = %41
  %44 = tail call i32 @strcasecmp(ptr noundef %37, ptr noundef nonnull @.str.71) #24
  %45 = icmp eq i32 %44, 0
  %46 = icmp sgt i32 %32, 2
  %or.cond3 = and i1 %46, %45
  br i1 %or.cond3, label %._crit_edge, label %48

47:                                               ; preds = %41
  %.old2 = icmp sgt i32 %32, 2
  br i1 %.old2, label %._crit_edge, label %48

48:                                               ; preds = %47, %43
  %49 = tail call i32 @strcasecmp(ptr noundef %37, ptr noundef nonnull @.str.72) #24
  %50 = icmp eq i32 %49, 0
  %51 = icmp sgt i32 %32, 0
  %or.cond6 = and i1 %51, %50
  br i1 %or.cond6, label %52, label %._crit_edge

52:                                               ; preds = %48, %.lr.ph
  %.sink = phi i32 [ 2, %.lr.ph ], [ 1, %48 ]
  %53 = add nsw i32 %.03045, %.sink
  %54 = add nsw i32 %53, 1
  %55 = icmp slt i32 %54, %2
  br i1 %55, label %.lr.ph, label %._crit_edge, !llvm.loop !217

._crit_edge:                                      ; preds = %48, %43, %47, %52, %getKeysPrepareResult.exit
  %.sink46 = phi i32 [ 17, %getKeysPrepareResult.exit ], [ 17, %52 ], [ 50, %47 ], [ 50, %43 ], [ 50, %48 ]
  %56 = getelementptr inbounds nuw i8, ptr %29, i64 4
  store i32 %.sink46, ptr %56, align 4, !tbaa !190
  ret i32 1
}